; Function Attrs: inlinehint mustprogress nofree nounwind willreturn uwtable
define internal fastcc range(i32 -32, 1) i32 @pmix_bfrops_base_tma_copy_device(ptr noundef writeonly captures(none) %0, ptr noundef readonly captures(none) %1) unnamed_addr #38 {
  %calloc.i = tail call dereferenceable_or_null(24) ptr @calloc(i64 1, i64 24)
  %3 = icmp eq ptr %calloc.i, null
  br i1 %3, label %18, label %4, !prof !77

4:                                                ; preds = %2
  %5 = load ptr, ptr %1, align 8, !tbaa !43
  %.not = icmp eq ptr %5, null
  br i1 %.not, label %8, label %6

6:                                                ; preds = %4
  %7 = tail call noalias ptr @strdup(ptr noundef nonnull readonly %5) #44
  store ptr %7, ptr %calloc.i, align 8, !tbaa !43
  br label %8

8:                                                ; preds = %6, %4
  %9 = getelementptr inbounds nuw i8, ptr %1, i64 8
  %10 = load ptr, ptr %9, align 8, !tbaa !45
  %.not17 = icmp eq ptr %10, null
  br i1 %.not17, label %14, label %11

11:                                               ; preds = %8
  %12 = tail call noalias ptr @strdup(ptr noundef nonnull readonly %10) #44
  %13 = getelementptr inbounds nuw i8, ptr %calloc.i, i64 8
  store ptr %12, ptr %13, align 8, !tbaa !45
  br label %14

14:                                               ; preds = %11, %8
  %15 = getelementptr inbounds nuw i8, ptr %1, i64 16
  %16 = load i64, ptr %15, align 8, !tbaa !209
  %17 = getelementptr inbounds nuw i8, ptr %calloc.i, i64 16
  store i64 %16, ptr %17, align 8, !tbaa !209
  store ptr %calloc.i, ptr %0, align 8, !tbaa !255
  br label %18

18:                                               ; preds = %2, %14
  %.0 = phi i32 [ 0, %14 ], [ -32, %2 ]
  ret i32 %.0
}